; Function Attrs: nounwind uwtable
define ptr @cs_nfree(ptr noundef %0) local_unnamed_addr #0 {
  %.not = icmp eq ptr %0, null
  br i1 %.not, label %35, label %2

2:                                                ; preds = %1
  %3 = load ptr, ptr %0, align 8, !tbaa !18
  %.not.i = icmp eq ptr %3, null
  br i1 %.not.i, label %cs_spfree.exit, label %4

4:                                                ; preds = %2
  %5 = getelementptr inbounds nuw i8, ptr %3, i64 16
  %6 = load ptr, ptr %5, align 8, !tbaa !14
  %7 = tail call ptr @cs_free(ptr noundef %6) #4
  %8 = getelementptr inbounds nuw i8, ptr %3, i64 24
  %9 = load ptr, ptr %8, align 8, !tbaa !15
  %10 = tail call ptr @cs_free(ptr noundef %9) #4
  %11 = getelementptr inbounds nuw i8, ptr %3, i64 32
  %12 = load ptr, ptr %11, align 8, !tbaa !16
  %13 = tail call ptr @cs_free(ptr noundef %12) #4
  %14 = tail call ptr @cs_free(ptr noundef nonnull %3) #4
  br label %cs_spfree.exit

cs_spfree.exit:                                   ; preds = %2, %4
  %15 = getelementptr inbounds nuw i8, ptr %0, i64 8
  %16 = load ptr, ptr %15, align 8, !tbaa !21
  %.not.i8 = icmp eq ptr %16, null
  br i1 %.not.i8, label %cs_spfree.exit10, label %17

17:                                               ; preds = %cs_spfree.exit
  %18 = getelementptr inbounds nuw i8, ptr %16, i64 16
  %19 = load ptr, ptr %18, align 8, !tbaa !14
  %20 = tail call ptr @cs_free(ptr noundef %19) #4
  %21 = getelementptr inbounds nuw i8, ptr %16, i64 24
  %22 = load ptr, ptr %21, align 8, !tbaa !15
  %23 = tail call ptr @cs_free(ptr noundef %22) #4
  %24 = getelementptr inbounds nuw i8, ptr %16, i64 32
  %25 = load ptr, ptr %24, align 8, !tbaa !16
  %26 = tail call ptr @cs_free(ptr noundef %25) #4
  %27 = tail call ptr @cs_free(ptr noundef nonnull %16) #4
  br label %cs_spfree.exit10

cs_spfree.exit10:                                 ; preds = %cs_spfree.exit, %17
  %28 = getelementptr inbounds nuw i8, ptr %0, i64 16
  %29 = load ptr, ptr %28, align 8, !tbaa !22
  %30 = tail call ptr @cs_free(ptr noundef %29) #4
  %31 = getelementptr inbounds nuw i8, ptr %0, i64 24
  %32 = load ptr, ptr %31, align 8, !tbaa !23
  %33 = tail call ptr @cs_free(ptr noundef %32) #4
  %34 = tail call ptr @cs_free(ptr noundef nonnull %0) #4
  br label %35

35:                                               ; preds = %1, %cs_spfree.exit10
  %.0 = phi ptr [ %34, %cs_spfree.exit10 ], [ null, %1 ]
  ret ptr %.0
}